target datalayout = "e-m:e-p270:32:32-p271:32:32-p272:64:64-i64:64-i128:128-f80:128-n8:16:32:64-S128"
target triple = "x86_64-pc-linux-gnu"

%struct.WarpedMotionParams = type { [8 x i32], i16, i16, i16, i16, i8, i8 }
%struct.AV1Decoder = type { %struct.DecoderCodingBlock, %struct.AV1Common, %struct.AVxWorker, %struct.AV1LfSyncData, %struct.AV1LrSyncData, %struct.AV1LrStruct, ptr, i32, ptr, [16 x i8], %struct.ThreadData, ptr, i32, [64 x [64 x %struct.TileBufferDec]], %struct.AV1DecTileMTData, i32, [4 x ptr], i64, i32, i32, i32, i32, i32, i32, i32, i32, i32, i32, i32, i32, i32, i32, i32, i32, i32, i64, %struct.DataBuffer, i32, i32, i32, i32, i32, i32, %struct.EXTERNAL_REFERENCES, %struct.yv12_buffer_config, ptr, i32, i32, ptr, ptr, %struct.AV1DecRowMTInfo, ptr, i32, i32, i32, i32, [8 x i32], i32, i32, i32, %struct.aom_s_frame_info, [28 x i8] }
%struct.DecoderCodingBlock = type { %struct.macroblockd, i32, [2 x ptr], [3 x ptr], [3 x i16], [3 x ptr], [3 x i16], [29 x i8], [29 x i8] }
%struct.macroblockd = type { i32, i32, i32, i8, [3 x %struct.macroblockd_plane], %struct.TileInfo, ptr, i8, i8, i8, i8, ptr, ptr, ptr, ptr, ptr, i32, i32, i32, i32, i32, [2 x ptr], ptr, [3 x ptr], [3 x [32 x i8]], ptr, [32 x i8], ptr, ptr, [32 x i8], [3 x %struct.WienerInfo], [3 x %struct.SgrprojInfo], i8, i8, [29 x [8 x %struct.candidate_mv]], [29 x [8 x i16]], i8, i8, [8 x i8], ptr, i32, [8 x i32], [8 x i32], i32, i32, ptr, ptr, i8, [4 x i8], [4 x i8], [7 x i8], [32768 x i8], %struct.cfl_ctx, [2 x i16], ptr, [2 x ptr] }
%struct.macroblockd_plane = type { i8, i32, i32, %struct.buf_2d, [2 x %struct.buf_2d], ptr, ptr, [8 x [2 x i16]], ptr, i8, i8, [8 x [19 x ptr]], [8 x [19 x ptr]] }
%struct.buf_2d = type { ptr, ptr, i32, i32, i32 }
%struct.TileInfo = type { i32, i32, i32, i32, i32, i32 }
%struct.WienerInfo = type { [8 x i16], [8 x i16] }
%struct.SgrprojInfo = type { i32, [2 x i32] }
%struct.candidate_mv = type { %union.int_mv, %union.int_mv }
%union.int_mv = type { i32 }
%struct.cfl_ctx = type { [1024 x i16], [1024 x i16], [2 x i32], i32, [2 x [32 x i16]], i32, i32, i32, i32, i32, i32 }
%struct.AV1Common = type { %struct.CurrentFrame, %struct.aom_internal_error_info, i32, i32, i32, i32, i32, i32, i8, i8, [33 x i32], i32, ptr, ptr, [8 x i32], %struct.scale_factors, [8 x %struct.scale_factors], [8 x ptr], i32, i32, i32, %struct.FeatureFlags, %struct.CommonModeInfoParams, %struct.CommonQuantParams, %struct.segmentation, ptr, [8 x i8], %struct.loop_filter_info_n, %struct.loopfilter, [3 x %struct.RestorationInfo], ptr, ptr, %struct.yv12_buffer_config, %struct.CdefInfo, %struct.aom_film_grain_t, %struct.DeltaQInfo, [8 x %struct.WarpedMotionParams], %struct.SequenceHeader, ptr, ptr, %struct.CommonTileParams, ptr, %struct.CommonContexts, i32, [8 x i32], ptr, i32, [8 x i32], [8 x i8], i32, i32, i32, i32 }
%struct.CurrentFrame = type { i8, i8, i32, i32, i32, %struct.SkipModeInfo, i32, i32 }
%struct.SkipModeInfo = type { i32, i32, i32, i32 }
%struct.aom_internal_error_info = type { i32, i32, [200 x i8], i32, [1 x %struct.__jmp_buf_tag] }
%struct.__jmp_buf_tag = type { [8 x i64], i32, %struct.__sigset_t }
%struct.__sigset_t = type { [16 x i64] }
%struct.scale_factors = type { i32, i32, i32, i32, ptr, ptr }
%struct.FeatureFlags = type { i8, i8, i8, i8, i8, i8, i8, i8, i8, i8, i8, i8, i8, i8, i32, i32, i8 }
%struct.CommonModeInfoParams = type { i32, i32, i32, i32, i32, ptr, i32, i32, i8, ptr, i32, i32, ptr, ptr, ptr, ptr }
%struct.CommonQuantParams = type { i32, i32, i32, i32, i32, i32, [8 x [2 x i16]], [8 x [2 x i16]], [8 x [2 x i16]], [16 x [3 x [19 x ptr]]], [16 x [3 x [19 x ptr]]], [8 x [19 x ptr]], [8 x [19 x ptr]], [8 x [19 x ptr]], i8, i32, i32, i32 }
%struct.segmentation = type { i8, i8, i8, i8, [8 x [8 x i16]], [8 x i32], i32, i8 }
%struct.loop_filter_info_n = type { [64 x %struct.loop_filter_thresh], [3 x [8 x [2 x [8 x [2 x i8]]]]] }
%struct.loop_filter_thresh = type { [16 x i8], [16 x i8], [16 x i8] }
%struct.loopfilter = type { [2 x i32], i32, i32, i32, i8, i8, [8 x i8], [2 x i8], i32 }
%struct.RestorationInfo = type { i32, i32, i32, i32, i32, ptr, %struct.RestorationStripeBoundaries, i32 }
%struct.RestorationStripeBoundaries = type { ptr, ptr, i32, i32 }
%struct.CdefInfo = type { i32, i32, [16 x i32], [16 x i32], i32 }
%struct.aom_film_grain_t = type { i32, i32, [14 x [2 x i32]], i32, [10 x [2 x i32]], i32, [10 x [2 x i32]], i32, i32, i32, [24 x i32], [25 x i32], [25 x i32], i32, i32, i32, i32, i32, i32, i32, i32, i32, i32, i32, i32, i16 }
%struct.DeltaQInfo = type { i32, i32, i32, i32, i32 }
%struct.SequenceHeader = type { i32, i32, i32, i32, i8, i32, i32, i8, i32, i32, %struct.OrderHintInfo, i8, i8, i8, i8, i8, i8, i8, i8, i8, i8, i8, i8, i8, i8, i32, i8, i8, i32, i32, i32, i32, i32, i32, i32, i8, i8, i32, [32 x i32], i32, %struct.aom_timing, i8, %struct.aom_dec_model_info, i8, [32 x i8], [32 x i8], [33 x %struct.aom_dec_model_op_parameters] }
%struct.OrderHintInfo = type { i32, i32, i32, i32 }
%struct.aom_timing = type { i32, i32, i32, i32 }
%struct.aom_dec_model_info = type { i32, i32, i32, i32 }
%struct.aom_dec_model_op_parameters = type { i32, i64, i64, i32, i32, i32, i32, i32 }
%struct.CommonTileParams = type { i32, i32, i32, i32, i32, i32, i32, i32, i32, i32, i32, i32, i32, i32, i32, [65 x i32], [65 x i32], i32, i32 }
%struct.CommonContexts = type { ptr, [3 x ptr], ptr, i32, i32, i32 }
%struct.AVxWorker = type { ptr, i32, ptr, ptr, ptr, ptr, i32 }
%struct.AV1LfSyncData = type { [3 x ptr], [3 x ptr], [3 x ptr], i32, i32, ptr, i32, ptr, ptr, i32, i32 }
%struct.AV1LrSyncData = type { [3 x ptr], [3 x ptr], [3 x ptr], i32, i32, i32, i32, ptr, ptr, ptr, i32, i32 }
%struct.AV1LrStruct = type { ptr, [3 x %struct.FilterFrameCtxt], ptr, ptr }
%struct.FilterFrameCtxt = type { ptr, i32, i32, i32, i32, i32, ptr, ptr, i32, i32, %struct.AV1PixelRect }
%struct.AV1PixelRect = type { i32, i32, i32, i32 }
%struct.ThreadData = type { %struct.DecoderCodingBlock, %struct.CB_BUFFER, ptr, [2 x ptr], i32, i32, ptr, [2 x ptr], ptr, ptr, ptr, ptr, ptr, ptr, [24 x i8] }
%struct.CB_BUFFER = type { [3 x [16384 x i32]], [3 x [1024 x %struct.eob_info]], [2 x [16384 x i8]] }
%struct.eob_info = type { i16, i16 }
%struct.TileBufferDec = type { ptr, i64 }
%struct.AV1DecTileMTData = type { ptr, ptr, i32, i32, i32, i32 }
%struct.DataBuffer = type { ptr, i64 }
%struct.EXTERNAL_REFERENCES = type { [128 x %struct.yv12_buffer_config], i32 }
%struct.yv12_buffer_config = type { %union.anon, %union.anon.0, %union.anon.2, %union.anon.4, %union.anon.6, %union.anon.8, i32, [3 x ptr], ptr, i32, ptr, i64, i32, i64, i32, i32, i32, i32, i32, i32, i8, i32, i32, i32, i32, i32, i32, ptr }
%union.anon = type { %struct.anon }
%struct.anon = type { i32, i32 }
%union.anon.0 = type { %struct.anon.1 }
%struct.anon.1 = type { i32, i32 }
%union.anon.2 = type { %struct.anon.3 }
%struct.anon.3 = type { i32, i32 }
%union.anon.4 = type { %struct.anon.5 }
%struct.anon.5 = type { i32, i32 }
%union.anon.6 = type { %struct.anon.7 }
%struct.anon.7 = type { i32, i32 }
%union.anon.8 = type { %struct.anon.9 }
%struct.anon.9 = type { ptr, ptr, ptr }
%struct.AV1DecRowMTInfo = type { i32, i32, i32, i32, i32, i32, i32, i32, i32, i32 }
%struct.aom_s_frame_info = type { i32, i32 }
%struct.RefCntBuffer = type { i32, i32, [7 x i32], i32, [7 x i32], ptr, ptr, %struct.segmentation, i32, i32, i32, i32, [8 x %struct.WarpedMotionParams], i32, i8, %struct.aom_film_grain_t, %struct.aom_codec_frame_buffer, %struct.yv12_buffer_config, i8, [4 x i32], [8 x i8], [2 x i8], %struct.frame_contexts }
%struct.aom_codec_frame_buffer = type { ptr, i64, ptr }
%struct.frame_contexts = type { [5 x [13 x [3 x i16]]], [5 x [2 x [9 x [3 x i16]]]], [2 x [3 x [3 x i16]]], [2 x [2 x [6 x i16]]], [2 x [2 x [7 x i16]]], [2 x [2 x [8 x i16]]], [2 x [2 x [9 x i16]]], [2 x [2 x [10 x i16]]], [2 x [2 x [11 x i16]]], [2 x [2 x [12 x i16]]], [5 x [2 x [4 x [4 x i16]]]], [5 x [2 x [42 x [5 x i16]]]], [5 x [2 x [21 x [5 x i16]]]], [6 x [3 x i16]], [2 x [3 x i16]], [6 x [3 x i16]], [3 x [3 x i16]], [8 x [9 x i16]], [22 x [3 x i16]], [22 x [17 x i16]], [4 x [3 x i16]], [22 x [3 x i16]], [4 x [5 x i16]], [22 x [4 x i16]], [22 x [3 x i16]], [7 x [8 x i16]], [7 x [8 x i16]], [7 x [5 x [9 x i16]]], [7 x [5 x [9 x i16]]], [7 x [3 x [3 x i16]]], [2 x [3 x i16]], [5 x [3 x i16]], [3 x [6 x [3 x i16]]], [5 x [3 x i16]], [3 x [3 x [3 x i16]]], [3 x [3 x [3 x i16]]], [3 x [2 x [3 x i16]]], [21 x [3 x i16]], [6 x [3 x i16]], [6 x [3 x i16]], [3 x [3 x i16]], [3 x [3 x i16]], [4 x [3 x i16]], %struct.nmv_context, %struct.nmv_context, [3 x i16], %struct.segmentation_probs, [22 x [3 x i16]], [6 x i16], [4 x i16], [3 x i16], [3 x i16], [4 x [14 x i16]], [2 x [13 x [15 x i16]]], [20 x [11 x i16]], [16 x [4 x i16]], [5 x [5 x [14 x i16]]], [8 x [8 x i16]], [4 x [3 x [4 x i16]]], [5 x i16], [4 x [5 x i16]], [5 x i16], [3 x [4 x [13 x [17 x i16]]]], [4 x [4 x [17 x i16]]], [9 x i16], [6 x [17 x i16]], i32 }
%struct.nmv_context = type { [5 x i16], [2 x %struct.nmv_component] }
%struct.nmv_component = type { [12 x i16], [2 x [5 x i16]], [5 x i16], [3 x i16], [3 x i16], [3 x i16], [3 x i16], [10 x [3 x i16]] }
%struct.segmentation_probs = type { [9 x i16], [3 x [3 x i16]], [3 x [9 x i16]] }

@mi_size_wide = internal constant [22 x i8] c"\01\01\02\02\02\04\04\04\08\08\08\10\10\10  \01\04\02\08\04\10", align 16
@mi_size_high = internal constant [22 x i8] c"\01\02\01\02\04\02\04\08\04\08\10\08\10 \10 \04\01\08\02\10\04", align 16

; Function Attrs: nounwind uwtable
define internal void @set_plane_n4(ptr noundef %0, i32 noundef %1, i32 noundef %2, i32 noundef %3) #0 {
  %5 = alloca ptr, align 8
  %6 = alloca i32, align 4
  %7 = alloca i32, align 4
  %8 = alloca i32, align 4
  %9 = alloca i32, align 4
  store ptr %0, ptr %5, align 8
  store i32 %1, ptr %6, align 4
  store i32 %2, ptr %7, align 4
  store i32 %3, ptr %8, align 4
  store i32 0, ptr %9, align 4
  br label %10

10:                                               ; preds = %105, %4
  %11 = load i32, ptr %9, align 4
  %12 = load i32, ptr %8, align 4
  %13 = icmp slt i32 %11, %12
  br i1 %13, label %14, label %108

14:                                               ; preds = %10
  %15 = load i32, ptr %6, align 4
  %16 = mul nsw i32 %15, 4
  %17 = load ptr, ptr %5, align 8
  %18 = getelementptr inbounds nuw %struct.macroblockd, ptr %17, i32 0, i32 4
  %19 = load i32, ptr %9, align 4
  %20 = sext i32 %19 to i64
  %21 = getelementptr inbounds [3 x %struct.macroblockd_plane], ptr %18, i64 0, i64 %20
  %22 = getelementptr inbounds nuw %struct.macroblockd_plane, ptr %21, i32 0, i32 1
  %23 = load i32, ptr %22, align 4
  %24 = ashr i32 %16, %23
  %25 = trunc i32 %24 to i8
  %26 = load ptr, ptr %5, align 8
  %27 = getelementptr inbounds nuw %struct.macroblockd, ptr %26, i32 0, i32 4
  %28 = load i32, ptr %9, align 4
  %29 = sext i32 %28 to i64
  %30 = getelementptr inbounds [3 x %struct.macroblockd_plane], ptr %27, i64 0, i64 %29
  %31 = getelementptr inbounds nuw %struct.macroblockd_plane, ptr %30, i32 0, i32 9
  store i8 %25, ptr %31, align 8
  %32 = load i32, ptr %7, align 4
  %33 = mul nsw i32 %32, 4
  %34 = load ptr, ptr %5, align 8
  %35 = getelementptr inbounds nuw %struct.macroblockd, ptr %34, i32 0, i32 4
  %36 = load i32, ptr %9, align 4
  %37 = sext i32 %36 to i64
  %38 = getelementptr inbounds [3 x %struct.macroblockd_plane], ptr %35, i64 0, i64 %37
  %39 = getelementptr inbounds nuw %struct.macroblockd_plane, ptr %38, i32 0, i32 2
  %40 = load i32, ptr %39, align 8
  %41 = ashr i32 %33, %40
  %42 = trunc i32 %41 to i8
  %43 = load ptr, ptr %5, align 8
  %44 = getelementptr inbounds nuw %struct.macroblockd, ptr %43, i32 0, i32 4
  %45 = load i32, ptr %9, align 4
  %46 = sext i32 %45 to i64
  %47 = getelementptr inbounds [3 x %struct.macroblockd_plane], ptr %44, i64 0, i64 %46
  %48 = getelementptr inbounds nuw %struct.macroblockd_plane, ptr %47, i32 0, i32 10
  store i8 %42, ptr %48, align 1
  %49 = load ptr, ptr %5, align 8
  %50 = getelementptr inbounds nuw %struct.macroblockd, ptr %49, i32 0, i32 4
  %51 = load i32, ptr %9, align 4
  %52 = sext i32 %51 to i64
  %53 = getelementptr inbounds [3 x %struct.macroblockd_plane], ptr %50, i64 0, i64 %52
  %54 = getelementptr inbounds nuw %struct.macroblockd_plane, ptr %53, i32 0, i32 9
  %55 = load i8, ptr %54, align 8
  %56 = zext i8 %55 to i32
  %57 = icmp sgt i32 %56, 4
  br i1 %57, label %58, label %67

58:                                               ; preds = %14
  %59 = load ptr, ptr %5, align 8
  %60 = getelementptr inbounds nuw %struct.macroblockd, ptr %59, i32 0, i32 4
  %61 = load i32, ptr %9, align 4
  %62 = sext i32 %61 to i64
  %63 = getelementptr inbounds [3 x %struct.macroblockd_plane], ptr %60, i64 0, i64 %62
  %64 = getelementptr inbounds nuw %struct.macroblockd_plane, ptr %63, i32 0, i32 9
  %65 = load i8, ptr %64, align 8
  %66 = zext i8 %65 to i32
  br label %68

67:                                               ; preds = %14
  br label %68

68:                                               ; preds = %67, %58
  %69 = phi i32 [ %66, %58 ], [ 4, %67 ]
  %70 = trunc i32 %69 to i8
  %71 = load ptr, ptr %5, align 8
  %72 = getelementptr inbounds nuw %struct.macroblockd, ptr %71, i32 0, i32 4
  %73 = load i32, ptr %9, align 4
  %74 = sext i32 %73 to i64
  %75 = getelementptr inbounds [3 x %struct.macroblockd_plane], ptr %72, i64 0, i64 %74
  %76 = getelementptr inbounds nuw %struct.macroblockd_plane, ptr %75, i32 0, i32 9
  store i8 %70, ptr %76, align 8
  %77 = load ptr, ptr %5, align 8
  %78 = getelementptr inbounds nuw %struct.macroblockd, ptr %77, i32 0, i32 4
  %79 = load i32, ptr %9, align 4
  %80 = sext i32 %79 to i64
  %81 = getelementptr inbounds [3 x %struct.macroblockd_plane], ptr %78, i64 0, i64 %80
  %82 = getelementptr inbounds nuw %struct.macroblockd_plane, ptr %81, i32 0, i32 10
  %83 = load i8, ptr %82, align 1
  %84 = zext i8 %83 to i32
  %85 = icmp sgt i32 %84, 4
  br i1 %85, label %86, label %95

86:                                               ; preds = %68
  %87 = load ptr, ptr %5, align 8
  %88 = getelementptr inbounds nuw %struct.macroblockd, ptr %87, i32 0, i32 4
  %89 = load i32, ptr %9, align 4
  %90 = sext i32 %89 to i64
  %91 = getelementptr inbounds [3 x %struct.macroblockd_plane], ptr %88, i64 0, i64 %90
  %92 = getelementptr inbounds nuw %struct.macroblockd_plane, ptr %91, i32 0, i32 10
  %93 = load i8, ptr %92, align 1
  %94 = zext i8 %93 to i32
  br label %96

95:                                               ; preds = %68
  br label %96

96:                                               ; preds = %95, %86
  %97 = phi i32 [ %94, %86 ], [ 4, %95 ]
  %98 = trunc i32 %97 to i8
  %99 = load ptr, ptr %5, align 8
  %100 = getelementptr inbounds nuw %struct.macroblockd, ptr %99, i32 0, i32 4
  %101 = load i32, ptr %9, align 4
  %102 = sext i32 %101 to i64
  %103 = getelementptr inbounds [3 x %struct.macroblockd_plane], ptr %100, i64 0, i64 %102
  %104 = getelementptr inbounds nuw %struct.macroblockd_plane, ptr %103, i32 0, i32 10
  store i8 %98, ptr %104, align 1
  br label %105

105:                                              ; preds = %96
  %106 = load i32, ptr %9, align 4
  %107 = add nsw i32 %106, 1
  store i32 %107, ptr %9, align 4
  br label %10, !llvm.loop !131

108:                                              ; preds = %10
  ret void
}

; Function Attrs: nounwind uwtable
define internal i32 @av1_num_planes(ptr noundef %0) #0 {
  %2 = alloca ptr, align 8
  store ptr %0, ptr %2, align 8
  %3 = load ptr, ptr %2, align 8
  %4 = getelementptr inbounds nuw %struct.AV1Common, ptr %3, i32 0, i32 37
  %5 = getelementptr inbounds nuw %struct.SequenceHeader, ptr %4, i32 0, i32 27
  %6 = load i8, ptr %5, align 1
  %7 = zext i8 %6 to i32
  %8 = icmp ne i32 %7, 0
  %9 = select i1 %8, i32 1, i32 3
  ret i32 %9
}

; Function Attrs: nounwind uwtable
define internal void @set_offsets_for_pred_and_recon(ptr noundef %0, ptr noundef %1, i32 noundef %2, i32 noundef %3, i8 noundef zeroext %4) #0 {
  %6 = alloca ptr, align 8
  %7 = alloca ptr, align 8
  %8 = alloca i32, align 4
  %9 = alloca i32, align 4
  %10 = alloca i8, align 1
  %11 = alloca ptr, align 8
  %12 = alloca ptr, align 8
  %13 = alloca ptr, align 8
  %14 = alloca ptr, align 8
  %15 = alloca i32, align 4
  %16 = alloca i32, align 4
  %17 = alloca i32, align 4
  %18 = alloca i32, align 4
  %19 = alloca ptr, align 8
  store ptr %0, ptr %6, align 8
  store ptr %1, ptr %7, align 8
  store i32 %2, ptr %8, align 4
  store i32 %3, ptr %9, align 4
  store i8 %4, ptr %10, align 1
  %20 = load ptr, ptr %6, align 8
  %21 = getelementptr inbounds nuw %struct.AV1Decoder, ptr %20, i32 0, i32 1
  store ptr %21, ptr %11, align 8
  %22 = load ptr, ptr %11, align 8
  %23 = getelementptr inbounds nuw %struct.AV1Common, ptr %22, i32 0, i32 22
  store ptr %23, ptr %12, align 8
  %24 = load ptr, ptr %7, align 8
  %25 = getelementptr inbounds nuw %struct.ThreadData, ptr %24, i32 0, i32 0
  store ptr %25, ptr %13, align 8
  %26 = load ptr, ptr %13, align 8
  %27 = getelementptr inbounds nuw %struct.DecoderCodingBlock, ptr %26, i32 0, i32 0
  store ptr %27, ptr %14, align 8
  %28 = load i8, ptr %10, align 1
  %29 = zext i8 %28 to i64
  %30 = getelementptr inbounds [22 x i8], ptr @mi_size_wide, i64 0, i64 %29
  %31 = load i8, ptr %30, align 1
  %32 = zext i8 %31 to i32
  store i32 %32, ptr %15, align 4
  %33 = load i8, ptr %10, align 1
  %34 = zext i8 %33 to i64
  %35 = getelementptr inbounds [22 x i8], ptr @mi_size_high, i64 0, i64 %34
  %36 = load i8, ptr %35, align 1
  %37 = zext i8 %36 to i32
  store i32 %37, ptr %16, align 4
  %38 = load ptr, ptr %11, align 8
  %39 = call i32 @av1_num_planes(ptr noundef %38)
  store i32 %39, ptr %17, align 4
  %40 = load i32, ptr %8, align 4
  %41 = load ptr, ptr %12, align 8
  %42 = getelementptr inbounds nuw %struct.CommonModeInfoParams, ptr %41, i32 0, i32 11
  %43 = load i32, ptr %42, align 4
  %44 = mul nsw i32 %40, %43
  %45 = load i32, ptr %9, align 4
  %46 = add nsw i32 %44, %45
  store i32 %46, ptr %18, align 4
  %47 = load ptr, ptr %14, align 8
  %48 = getelementptr inbounds nuw %struct.macroblockd, ptr %47, i32 0, i32 5
  store ptr %48, ptr %19, align 8
  %49 = load ptr, ptr %12, align 8
  %50 = getelementptr inbounds nuw %struct.CommonModeInfoParams, ptr %49, i32 0, i32 9
  %51 = load ptr, ptr %50, align 8
  %52 = load i32, ptr %18, align 4
  %53 = sext i32 %52 to i64
  %54 = getelementptr inbounds ptr, ptr %51, i64 %53
  %55 = load ptr, ptr %14, align 8
  %56 = getelementptr inbounds nuw %struct.macroblockd, ptr %55, i32 0, i32 6
  store ptr %54, ptr %56, align 8
  %57 = load ptr, ptr %12, align 8
  %58 = getelementptr inbounds nuw %struct.CommonModeInfoParams, ptr %57, i32 0, i32 12
  %59 = load ptr, ptr %58, align 8
  %60 = load i32, ptr %8, align 4
  %61 = load ptr, ptr %12, align 8
  %62 = getelementptr inbounds nuw %struct.CommonModeInfoParams, ptr %61, i32 0, i32 11
  %63 = load i32, ptr %62, align 4
  %64 = mul nsw i32 %60, %63
  %65 = load i32, ptr %9, align 4
  %66 = add nsw i32 %64, %65
  %67 = sext i32 %66 to i64
  %68 = getelementptr inbounds i8, ptr %59, i64 %67
  %69 = load ptr, ptr %14, align 8
  %70 = getelementptr inbounds nuw %struct.macroblockd, ptr %69, i32 0, i32 15
  store ptr %68, ptr %70, align 8
  %71 = load ptr, ptr %12, align 8
  %72 = getelementptr inbounds nuw %struct.CommonModeInfoParams, ptr %71, i32 0, i32 11
  %73 = load i32, ptr %72, align 4
  %74 = load ptr, ptr %14, align 8
  %75 = getelementptr inbounds nuw %struct.macroblockd, ptr %74, i32 0, i32 16
  store i32 %73, ptr %75, align 16
  %76 = load ptr, ptr %14, align 8
  %77 = load i32, ptr %15, align 4
  %78 = load i32, ptr %16, align 4
  %79 = load i32, ptr %17, align 4
  call void @set_plane_n4(ptr noundef %76, i32 noundef %77, i32 noundef %78, i32 noundef %79)
  %80 = load ptr, ptr %14, align 8
  %81 = load ptr, ptr %19, align 8
  %82 = load i32, ptr %8, align 4
  %83 = load i32, ptr %16, align 4
  %84 = load i32, ptr %9, align 4
  %85 = load i32, ptr %15, align 4
  %86 = load ptr, ptr %12, align 8
  %87 = getelementptr inbounds nuw %struct.CommonModeInfoParams, ptr %86, i32 0, i32 3
  %88 = load i32, ptr %87, align 4
  %89 = load ptr, ptr %12, align 8
  %90 = getelementptr inbounds nuw %struct.CommonModeInfoParams, ptr %89, i32 0, i32 4
  %91 = load i32, ptr %90, align 8
  call void @set_mi_row_col(ptr noundef %80, ptr noundef %81, i32 noundef %82, i32 noundef %83, i32 noundef %84, i32 noundef %85, i32 noundef %88, i32 noundef %91)
  %92 = load ptr, ptr %14, align 8
  %93 = getelementptr inbounds nuw %struct.macroblockd, ptr %92, i32 0, i32 4
  %94 = getelementptr inbounds [3 x %struct.macroblockd_plane], ptr %93, i64 0, i64 0
  %95 = load i8, ptr %10, align 1
  %96 = load ptr, ptr %11, align 8
  %97 = getelementptr inbounds nuw %struct.AV1Common, ptr %96, i32 0, i32 13
  %98 = load ptr, ptr %97, align 8
  %99 = getelementptr inbounds nuw %struct.RefCntBuffer, ptr %98, i32 0, i32 17
  %100 = load i32, ptr %8, align 4
  %101 = load i32, ptr %9, align 4
  %102 = load i32, ptr %17, align 4
  call void @av1_setup_dst_planes(ptr noundef %94, i8 noundef zeroext %95, ptr noundef %99, i32 noundef %100, i32 noundef %101, i32 noundef 0, i32 noundef %102)
  ret void
}

; Function Attrs: nounwind uwtable
define internal void @decode_block(ptr noundef %0, ptr noundef %1, i32 noundef %2, i32 noundef %3, ptr noundef %4, i8 noundef zeroext %5, i8 noundef zeroext %6) #0 {
  %8 = alloca ptr, align 8
  %9 = alloca ptr, align 8
  %10 = alloca i32, align 4
  %11 = alloca i32, align 4
  %12 = alloca ptr, align 8
  %13 = alloca i8, align 1
  %14 = alloca i8, align 1
  store ptr %0, ptr %8, align 8
  store ptr %1, ptr %9, align 8
  store i32 %2, ptr %10, align 4
  store i32 %3, ptr %11, align 4
  store ptr %4, ptr %12, align 8
  store i8 %5, ptr %13, align 1
  store i8 %6, ptr %14, align 1
  %15 = load ptr, ptr %8, align 8
  %16 = load ptr, ptr %9, align 8
  %17 = load i32, ptr %10, align 4
  %18 = load i32, ptr %11, align 4
  %19 = load i8, ptr %14, align 1
  call void @set_offsets_for_pred_and_recon(ptr noundef %15, ptr noundef %16, i32 noundef %17, i32 noundef %18, i8 noundef zeroext %19)
  %20 = load ptr, ptr %8, align 8
  %21 = load ptr, ptr %9, align 8
  %22 = load ptr, ptr %12, align 8
  %23 = load i8, ptr %14, align 1
  call void @decode_token_recon_block(ptr noundef %20, ptr noundef %21, ptr noundef %22, i8 noundef zeroext %23)
  ret void
}