; Function Attrs: nounwind uwtable
define internal void @decode_block(ptr noundef %0, ptr noundef initializes((7864, 7872), (7912, 7924)) %1, i32 noundef %2, i32 noundef %3, ptr noundef %4, i8 zeroext %5, i8 noundef zeroext %6) #0 {
  %8 = zext i8 %6 to i64
  %9 = getelementptr inbounds nuw [22 x i8], ptr @mi_size_wide, i64 0, i64 %8
  %10 = load i8, ptr %9, align 1
  %11 = zext i8 %10 to i32
  %12 = getelementptr inbounds nuw [22 x i8], ptr @mi_size_high, i64 0, i64 %8
  %13 = load i8, ptr %12, align 1
  %14 = zext i8 %13 to i32
  %15 = getelementptr i8, ptr %0, i64 73229
  %.val.i = load i8, ptr %15, align 1
  %.not.i.i = icmp eq i8 %.val.i, 0
  %16 = select i1 %.not.i.i, i32 3, i32 1
  %17 = getelementptr inbounds nuw i8, ptr %0, i64 49092
  %18 = load i32, ptr %17, align 4
  %19 = mul nsw i32 %18, %2
  %20 = add nsw i32 %19, %3
  %21 = getelementptr inbounds nuw i8, ptr %0, i64 49080
  %22 = load ptr, ptr %21, align 8
  %23 = sext i32 %20 to i64
  %24 = getelementptr inbounds ptr, ptr %22, i64 %23
  %25 = getelementptr inbounds nuw i8, ptr %1, i64 7864
  store ptr %24, ptr %25, align 8
  %26 = getelementptr inbounds nuw i8, ptr %0, i64 49096
  %27 = load ptr, ptr %26, align 8
  %28 = load i32, ptr %17, align 4
  %29 = mul nsw i32 %28, %2
  %30 = add nsw i32 %29, %3
  %31 = sext i32 %30 to i64
  %32 = getelementptr inbounds i8, ptr %27, i64 %31
  %33 = getelementptr inbounds nuw i8, ptr %1, i64 7912
  store ptr %32, ptr %33, align 8
  %34 = load i32, ptr %17, align 4
  %35 = getelementptr inbounds nuw i8, ptr %1, i64 7920
  store i32 %34, ptr %35, align 16
  %36 = shl nuw nsw i32 %11, 2
  %37 = getelementptr inbounds nuw i8, ptr %1, i64 16
  %38 = shl nuw nsw i32 %14, 2
  %wide.trip.count.i.i = zext nneg i32 %16 to i64
  br label %39

39:                                               ; preds = %39, %7
  %indvars.iv.i.i = phi i64 [ 0, %7 ], [ %indvars.iv.next.i.i, %39 ]
  %40 = getelementptr inbounds nuw [3 x %struct.macroblockd_plane], ptr %37, i64 0, i64 %indvars.iv.i.i
  %41 = getelementptr inbounds nuw i8, ptr %40, i64 4
  %42 = load i32, ptr %41, align 4
  %43 = lshr i32 %36, %42
  %44 = trunc i32 %43 to i8
  %45 = getelementptr inbounds nuw i8, ptr %40, i64 168
  %46 = getelementptr inbounds nuw i8, ptr %40, i64 8
  %47 = load i32, ptr %46, align 8
  %48 = lshr i32 %38, %47
  %49 = trunc i32 %48 to i8
  %50 = getelementptr inbounds nuw i8, ptr %40, i64 169
  %spec.select.i.i = tail call i8 @llvm.umax.i8(i8 %44, i8 4)
  store i8 %spec.select.i.i, ptr %45, align 8
  %51 = tail call i8 @llvm.umax.i8(i8 %49, i8 4)
  store i8 %51, ptr %50, align 1
  %indvars.iv.next.i.i = add nuw nsw i64 %indvars.iv.i.i, 1
  %exitcond.not.i.i = icmp eq i64 %indvars.iv.next.i.i, %wide.trip.count.i.i
  br i1 %exitcond.not.i.i, label %set_offsets_for_pred_and_recon.exit, label %39, !llvm.loop !113

set_offsets_for_pred_and_recon.exit:              ; preds = %39
  %52 = getelementptr inbounds nuw i8, ptr %1, i64 7840
  %53 = getelementptr inbounds nuw i8, ptr %0, i64 49044
  %54 = load i32, ptr %53, align 4
  %55 = getelementptr inbounds nuw i8, ptr %0, i64 49048
  %56 = load i32, ptr %55, align 8
  tail call fastcc void @set_mi_row_col(ptr noundef nonnull %1, ptr noundef nonnull %52, i32 noundef %2, i32 noundef %14, i32 noundef %3, i32 noundef %11, i32 noundef %54, i32 noundef %56)
  %57 = getelementptr inbounds nuw i8, ptr %0, i64 48600
  %58 = load ptr, ptr %57, align 8
  %59 = getelementptr inbounds nuw i8, ptr %58, i64 1312
  tail call void @av1_setup_dst_planes(ptr noundef nonnull %37, i8 noundef zeroext %6, ptr noundef nonnull %59, i32 noundef %2, i32 noundef %3, i32 noundef 0, i32 noundef %16) #16
  tail call fastcc void @decode_token_recon_block(ptr noundef %0, ptr noundef nonnull %1, ptr noundef %4, i8 noundef zeroext %6)
  ret void
}